target datalayout = "e-m:e-p270:32:32-p271:32:32-p272:64:64-i64:64-i128:128-f80:128-n8:16:32:64-S128"
target triple = "x86_64-unknown-linux-gnu"

%struct.b2Vec2 = type { float, float }
%struct.b2Manifold = type { [2 x %struct.b2ManifoldPoint], %struct.b2Vec2, %struct.b2Vec2, i32, i32 }
%struct.b2ManifoldPoint = type { %struct.b2Vec2, float, float, %union.b2ContactID }
%union.b2ContactID = type { i32 }
%class.b2CircleShape = type { %class.b2Shape, %struct.b2Vec2 }
%class.b2Shape = type { ptr, i32, float }
%struct.b2Transform = type { %struct.b2Vec2, %struct.b2Rot }
%struct.b2Rot = type { float, float }

; Function Attrs: mustprogress nounwind uwtable
define linkonce_odr hidden void @_ZN6b2Vec2C2Eff(ptr noundef nonnull align 4 dereferenceable(8) %this, float noundef %xIn, float noundef %yIn) unnamed_addr #1 comdat align 2 {
entry:
  %this.addr = alloca ptr, align 8
  %xIn.addr = alloca float, align 4
  %yIn.addr = alloca float, align 4
  store ptr %this, ptr %this.addr, align 8
  store float %xIn, ptr %xIn.addr, align 4
  store float %yIn, ptr %yIn.addr, align 4
  %this1 = load ptr, ptr %this.addr, align 8
  %x = getelementptr inbounds %struct.b2Vec2, ptr %this1, i32 0, i32 0
  %0 = load float, ptr %xIn.addr, align 4
  store float %0, ptr %x, align 4
  %y = getelementptr inbounds %struct.b2Vec2, ptr %this1, i32 0, i32 1
  %1 = load float, ptr %yIn.addr, align 4
  store float %1, ptr %y, align 4
  ret void
}

; Function Attrs: mustprogress nounwind uwtable
define linkonce_odr hidden void @_ZN6b2Vec27SetZeroEv(ptr noundef nonnull align 4 dereferenceable(8) %this) #1 comdat align 2 {
entry:
  %this.addr = alloca ptr, align 8
  store ptr %this, ptr %this.addr, align 8
  %this1 = load ptr, ptr %this.addr, align 8
  %x = getelementptr inbounds %struct.b2Vec2, ptr %this1, i32 0, i32 0
  store float 0.000000e+00, ptr %x, align 4
  %y = getelementptr inbounds %struct.b2Vec2, ptr %this1, i32 0, i32 1
  store float 0.000000e+00, ptr %y, align 4
  ret void
}

; Function Attrs: mustprogress nounwind uwtable
define linkonce_odr hidden noundef float @_Z5b2DotRK6b2Vec2S1_(ptr noundef nonnull align 4 dereferenceable(8) %a, ptr noundef nonnull align 4 dereferenceable(8) %b) #1 comdat {
entry:
  %a.addr = alloca ptr, align 8
  %b.addr = alloca ptr, align 8
  store ptr %a, ptr %a.addr, align 8
  store ptr %b, ptr %b.addr, align 8
  %0 = load ptr, ptr %a.addr, align 8
  %x = getelementptr inbounds %struct.b2Vec2, ptr %0, i32 0, i32 0
  %1 = load float, ptr %x, align 4
  %2 = load ptr, ptr %b.addr, align 8
  %x1 = getelementptr inbounds %struct.b2Vec2, ptr %2, i32 0, i32 0
  %3 = load float, ptr %x1, align 4
  %4 = load ptr, ptr %a.addr, align 8
  %y = getelementptr inbounds %struct.b2Vec2, ptr %4, i32 0, i32 1
  %5 = load float, ptr %y, align 4
  %6 = load ptr, ptr %b.addr, align 8
  %y2 = getelementptr inbounds %struct.b2Vec2, ptr %6, i32 0, i32 1
  %7 = load float, ptr %y2, align 4
  %mul3 = fmul float %5, %7
  %8 = call float @llvm.fmuladd.f32(float %1, float %3, float %mul3)
  ret float %8
}

; Function Attrs: mustprogress uwtable
define linkonce_odr hidden <2 x float> @_ZmiRK6b2Vec2S1_(ptr noundef nonnull align 4 dereferenceable(8) %a, ptr noundef nonnull align 4 dereferenceable(8) %b) #0 comdat {
entry:
  %retval = alloca %struct.b2Vec2, align 4
  %a.addr = alloca ptr, align 8
  %b.addr = alloca ptr, align 8
  store ptr %a, ptr %a.addr, align 8
  store ptr %b, ptr %b.addr, align 8
  %0 = load ptr, ptr %a.addr, align 8
  %x = getelementptr inbounds %struct.b2Vec2, ptr %0, i32 0, i32 0
  %1 = load float, ptr %x, align 4
  %2 = load ptr, ptr %b.addr, align 8
  %x1 = getelementptr inbounds %struct.b2Vec2, ptr %2, i32 0, i32 0
  %3 = load float, ptr %x1, align 4
  %sub = fsub float %1, %3
  %4 = load ptr, ptr %a.addr, align 8
  %y = getelementptr inbounds %struct.b2Vec2, ptr %4, i32 0, i32 1
  %5 = load float, ptr %y, align 4
  %6 = load ptr, ptr %b.addr, align 8
  %y2 = getelementptr inbounds %struct.b2Vec2, ptr %6, i32 0, i32 1
  %7 = load float, ptr %y2, align 4
  %sub3 = fsub float %5, %7
  call void @_ZN6b2Vec2C2Eff(ptr noundef nonnull align 4 dereferenceable(8) %retval, float noundef %sub, float noundef %sub3)
  %8 = load <2 x float>, ptr %retval, align 4
  ret <2 x float> %8
}

; Function Attrs: mustprogress uwtable
define linkonce_odr hidden <2 x float> @_Z5b2MulRK11b2TransformRK6b2Vec2(ptr noundef nonnull align 4 dereferenceable(16) %T, ptr noundef nonnull align 4 dereferenceable(8) %v) #0 comdat {
entry:
  %retval = alloca %struct.b2Vec2, align 4
  %T.addr = alloca ptr, align 8
  %v.addr = alloca ptr, align 8
  %x = alloca float, align 4
  %y5 = alloca float, align 4
  store ptr %T, ptr %T.addr, align 8
  store ptr %v, ptr %v.addr, align 8
  %0 = load ptr, ptr %T.addr, align 8
  %q = getelementptr inbounds %struct.b2Transform, ptr %0, i32 0, i32 1
  %c = getelementptr inbounds %struct.b2Rot, ptr %q, i32 0, i32 1
  %1 = load float, ptr %c, align 4
  %2 = load ptr, ptr %v.addr, align 8
  %x1 = getelementptr inbounds %struct.b2Vec2, ptr %2, i32 0, i32 0
  %3 = load float, ptr %x1, align 4
  %4 = load ptr, ptr %T.addr, align 8
  %q2 = getelementptr inbounds %struct.b2Transform, ptr %4, i32 0, i32 1
  %s = getelementptr inbounds %struct.b2Rot, ptr %q2, i32 0, i32 0
  %5 = load float, ptr %s, align 4
  %6 = load ptr, ptr %v.addr, align 8
  %y = getelementptr inbounds %struct.b2Vec2, ptr %6, i32 0, i32 1
  %7 = load float, ptr %y, align 4
  %mul3 = fmul float %5, %7
  %neg = fneg float %mul3
  %8 = call float @llvm.fmuladd.f32(float %1, float %3, float %neg)
  %9 = load ptr, ptr %T.addr, align 8
  %p = getelementptr inbounds %struct.b2Transform, ptr %9, i32 0, i32 0
  %x4 = getelementptr inbounds %struct.b2Vec2, ptr %p, i32 0, i32 0
  %10 = load float, ptr %x4, align 4
  %add = fadd float %8, %10
  store float %add, ptr %x, align 4
  %11 = load ptr, ptr %T.addr, align 8
  %q6 = getelementptr inbounds %struct.b2Transform, ptr %11, i32 0, i32 1
  %s7 = getelementptr inbounds %struct.b2Rot, ptr %q6, i32 0, i32 0
  %12 = load float, ptr %s7, align 4
  %13 = load ptr, ptr %v.addr, align 8
  %x8 = getelementptr inbounds %struct.b2Vec2, ptr %13, i32 0, i32 0
  %14 = load float, ptr %x8, align 4
  %15 = load ptr, ptr %T.addr, align 8
  %q9 = getelementptr inbounds %struct.b2Transform, ptr %15, i32 0, i32 1
  %c10 = getelementptr inbounds %struct.b2Rot, ptr %q9, i32 0, i32 1
  %16 = load float, ptr %c10, align 4
  %17 = load ptr, ptr %v.addr, align 8
  %y11 = getelementptr inbounds %struct.b2Vec2, ptr %17, i32 0, i32 1
  %18 = load float, ptr %y11, align 4
  %mul12 = fmul float %16, %18
  %19 = call float @llvm.fmuladd.f32(float %12, float %14, float %mul12)
  %20 = load ptr, ptr %T.addr, align 8
  %p13 = getelementptr inbounds %struct.b2Transform, ptr %20, i32 0, i32 0
  %y14 = getelementptr inbounds %struct.b2Vec2, ptr %p13, i32 0, i32 1
  %21 = load float, ptr %y14, align 4
  %add15 = fadd float %19, %21
  store float %add15, ptr %y5, align 4
  %22 = load float, ptr %x, align 4
  %23 = load float, ptr %y5, align 4
  call void @_ZN6b2Vec2C2Eff(ptr noundef nonnull align 4 dereferenceable(8) %retval, float noundef %22, float noundef %23)
  %24 = load <2 x float>, ptr %retval, align 4
  ret <2 x float> %24
}

; Function Attrs: mustprogress uwtable
define void @_Z16b2CollideCirclesP10b2ManifoldPK13b2CircleShapeRK11b2TransformS3_S6_(ptr noundef %manifold, ptr noundef %circleA, ptr noundef nonnull align 4 dereferenceable(16) %xfA, ptr noundef %circleB, ptr noundef nonnull align 4 dereferenceable(16) %xfB) #0 {
entry:
  %manifold.addr = alloca ptr, align 8
  %circleA.addr = alloca ptr, align 8
  %xfA.addr = alloca ptr, align 8
  %circleB.addr = alloca ptr, align 8
  %xfB.addr = alloca ptr, align 8
  %pA = alloca %struct.b2Vec2, align 4
  %pB = alloca %struct.b2Vec2, align 4
  %d = alloca %struct.b2Vec2, align 4
  %distSqr = alloca float, align 4
  %rA = alloca float, align 4
  %rB = alloca float, align 4
  %radius = alloca float, align 4
  store ptr %manifold, ptr %manifold.addr, align 8
  store ptr %circleA, ptr %circleA.addr, align 8
  store ptr %xfA, ptr %xfA.addr, align 8
  store ptr %circleB, ptr %circleB.addr, align 8
  store ptr %xfB, ptr %xfB.addr, align 8
  %0 = load ptr, ptr %manifold.addr, align 8
  %pointCount = getelementptr inbounds %struct.b2Manifold, ptr %0, i32 0, i32 4
  store i32 0, ptr %pointCount, align 4
  %1 = load ptr, ptr %xfA.addr, align 8
  %2 = load ptr, ptr %circleA.addr, align 8
  %m_p = getelementptr inbounds %class.b2CircleShape, ptr %2, i32 0, i32 1
  %call = call <2 x float> @_Z5b2MulRK11b2TransformRK6b2Vec2(ptr noundef nonnull align 4 dereferenceable(16) %1, ptr noundef nonnull align 4 dereferenceable(8) %m_p)
  store <2 x float> %call, ptr %pA, align 4
  %3 = load ptr, ptr %xfB.addr, align 8
  %4 = load ptr, ptr %circleB.addr, align 8
  %m_p1 = getelementptr inbounds %class.b2CircleShape, ptr %4, i32 0, i32 1
  %call2 = call <2 x float> @_Z5b2MulRK11b2TransformRK6b2Vec2(ptr noundef nonnull align 4 dereferenceable(16) %3, ptr noundef nonnull align 4 dereferenceable(8) %m_p1)
  store <2 x float> %call2, ptr %pB, align 4
  %call3 = call <2 x float> @_ZmiRK6b2Vec2S1_(ptr noundef nonnull align 4 dereferenceable(8) %pB, ptr noundef nonnull align 4 dereferenceable(8) %pA)
  store <2 x float> %call3, ptr %d, align 4
  %call4 = call noundef float @_Z5b2DotRK6b2Vec2S1_(ptr noundef nonnull align 4 dereferenceable(8) %d, ptr noundef nonnull align 4 dereferenceable(8) %d)
  store float %call4, ptr %distSqr, align 4
  %5 = load ptr, ptr %circleA.addr, align 8
  %m_radius = getelementptr inbounds %class.b2Shape, ptr %5, i32 0, i32 2
  %6 = load float, ptr %m_radius, align 4
  store float %6, ptr %rA, align 4
  %7 = load ptr, ptr %circleB.addr, align 8
  %m_radius5 = getelementptr inbounds %class.b2Shape, ptr %7, i32 0, i32 2
  %8 = load float, ptr %m_radius5, align 4
  store float %8, ptr %rB, align 4
  %9 = load float, ptr %rA, align 4
  %10 = load float, ptr %rB, align 4
  %add = fadd float %9, %10
  store float %add, ptr %radius, align 4
  %11 = load float, ptr %distSqr, align 4
  %12 = load float, ptr %radius, align 4
  %13 = load float, ptr %radius, align 4
  %mul = fmul float %12, %13
  %cmp = fcmp ogt float %11, %mul
  br i1 %cmp, label %if.then, label %if.end

if.then:                                          ; preds = %entry
  br label %return

if.end:                                           ; preds = %entry
  %14 = load ptr, ptr %manifold.addr, align 8
  %type = getelementptr inbounds %struct.b2Manifold, ptr %14, i32 0, i32 3
  store i32 0, ptr %type, align 4
  %15 = load ptr, ptr %circleA.addr, align 8
  %m_p6 = getelementptr inbounds %class.b2CircleShape, ptr %15, i32 0, i32 1
  %16 = load ptr, ptr %manifold.addr, align 8
  %localPoint = getelementptr inbounds %struct.b2Manifold, ptr %16, i32 0, i32 2
  call void @llvm.memcpy.p0.p0.i64(ptr align 4 %localPoint, ptr align 8 %m_p6, i64 8, i1 false)
  %17 = load ptr, ptr %manifold.addr, align 8
  %localNormal = getelementptr inbounds %struct.b2Manifold, ptr %17, i32 0, i32 1
  call void @_ZN6b2Vec27SetZeroEv(ptr noundef nonnull align 4 dereferenceable(8) %localNormal)
  %18 = load ptr, ptr %manifold.addr, align 8
  %pointCount7 = getelementptr inbounds %struct.b2Manifold, ptr %18, i32 0, i32 4
  store i32 1, ptr %pointCount7, align 4
  %19 = load ptr, ptr %circleB.addr, align 8
  %m_p8 = getelementptr inbounds %class.b2CircleShape, ptr %19, i32 0, i32 1
  %20 = load ptr, ptr %manifold.addr, align 8
  %points = getelementptr inbounds %struct.b2Manifold, ptr %20, i32 0, i32 0
  %arrayidx = getelementptr inbounds [2 x %struct.b2ManifoldPoint], ptr %points, i64 0, i64 0
  %localPoint9 = getelementptr inbounds %struct.b2ManifoldPoint, ptr %arrayidx, i32 0, i32 0
  call void @llvm.memcpy.p0.p0.i64(ptr align 4 %localPoint9, ptr align 8 %m_p8, i64 8, i1 false)
  %21 = load ptr, ptr %manifold.addr, align 8
  %points10 = getelementptr inbounds %struct.b2Manifold, ptr %21, i32 0, i32 0
  %arrayidx11 = getelementptr inbounds [2 x %struct.b2ManifoldPoint], ptr %points10, i64 0, i64 0
  %id = getelementptr inbounds %struct.b2ManifoldPoint, ptr %arrayidx11, i32 0, i32 3
  store i32 0, ptr %id, align 4
  br label %return

return:                                           ; preds = %if.end, %if.then
  ret void
}