; Function Attrs: mustprogress nofree norecurse nosync nounwind willreturn memory(argmem: readwrite) uwtable
define void @_Z16b2CollideCirclesP10b2ManifoldPK13b2CircleShapeRK11b2TransformS3_S6_(ptr noundef writeonly captures(none) initializes((60, 64)) %manifold, ptr noundef readonly captures(none) %circleA, ptr noundef nonnull readonly align 4 captures(none) dereferenceable(16) %xfA, ptr noundef readonly captures(none) %circleB, ptr noundef nonnull readonly align 4 captures(none) dereferenceable(16) %xfB) local_unnamed_addr #0 {
entry:
  %pointCount = getelementptr inbounds nuw i8, ptr %manifold, i64 60
  store i32 0, ptr %pointCount, align 4
  %m_p = getelementptr inbounds nuw i8, ptr %circleA, i64 16
  %q.i = getelementptr inbounds nuw i8, ptr %xfA, i64 8
  %c.i = getelementptr inbounds nuw i8, ptr %xfA, i64 12
  %0 = load float, ptr %c.i, align 4
  %1 = load float, ptr %m_p, align 4
  %2 = load float, ptr %q.i, align 4
  %y.i = getelementptr inbounds nuw i8, ptr %circleA, i64 20
  %3 = load float, ptr %y.i, align 4
  %4 = fneg float %3
  %neg.i = fmul float %2, %4
  %5 = tail call float @llvm.fmuladd.f32(float %0, float %1, float %neg.i)
  %6 = load float, ptr %xfA, align 4
  %add.i = fadd float %6, %5
  %mul12.i = fmul float %0, %3
  %7 = tail call float @llvm.fmuladd.f32(float %2, float %1, float %mul12.i)
  %y14.i = getelementptr inbounds nuw i8, ptr %xfA, i64 4
  %8 = load float, ptr %y14.i, align 4
  %add15.i = fadd float %7, %8
  %m_p1 = getelementptr inbounds nuw i8, ptr %circleB, i64 16
  %q.i12 = getelementptr inbounds nuw i8, ptr %xfB, i64 8
  %c.i13 = getelementptr inbounds nuw i8, ptr %xfB, i64 12
  %9 = load float, ptr %c.i13, align 4
  %10 = load float, ptr %m_p1, align 4
  %11 = load float, ptr %q.i12, align 4
  %y.i14 = getelementptr inbounds nuw i8, ptr %circleB, i64 20
  %12 = load float, ptr %y.i14, align 4
  %13 = fneg float %12
  %neg.i15 = fmul float %11, %13
  %14 = tail call float @llvm.fmuladd.f32(float %9, float %10, float %neg.i15)
  %15 = load float, ptr %xfB, align 4
  %add.i16 = fadd float %15, %14
  %mul12.i17 = fmul float %9, %12
  %16 = tail call float @llvm.fmuladd.f32(float %11, float %10, float %mul12.i17)
  %y14.i18 = getelementptr inbounds nuw i8, ptr %xfB, i64 4
  %17 = load float, ptr %y14.i18, align 4
  %add15.i19 = fadd float %16, %17
  %sub.i = fsub float %add.i16, %add.i
  %sub3.i = fsub float %add15.i19, %add15.i
  %mul3.i = fmul float %sub3.i, %sub3.i
  %18 = tail call noundef float @llvm.fmuladd.f32(float %sub.i, float %sub.i, float %mul3.i)
  %m_radius = getelementptr inbounds nuw i8, ptr %circleA, i64 12
  %19 = load float, ptr %m_radius, align 4
  %m_radius5 = getelementptr inbounds nuw i8, ptr %circleB, i64 12
  %20 = load float, ptr %m_radius5, align 4
  %add = fadd float %19, %20
  %mul = fmul float %add, %add
  %cmp = fcmp ogt float %18, %mul
  br i1 %cmp, label %return, label %if.end

if.end:                                           ; preds = %entry
  %type = getelementptr inbounds nuw i8, ptr %manifold, i64 56
  store i32 0, ptr %type, align 4
  %localPoint = getelementptr inbounds nuw i8, ptr %manifold, i64 48
  %21 = load i64, ptr %m_p, align 8
  store i64 %21, ptr %localPoint, align 4
  %localNormal = getelementptr inbounds nuw i8, ptr %manifold, i64 40
  store float 0.000000e+00, ptr %localNormal, align 4
  %y.i27 = getelementptr inbounds nuw i8, ptr %manifold, i64 44
  store float 0.000000e+00, ptr %y.i27, align 4
  store i32 1, ptr %pointCount, align 4
  %22 = load i64, ptr %m_p1, align 8
  store i64 %22, ptr %manifold, align 4
  %id = getelementptr inbounds nuw i8, ptr %manifold, i64 16
  store i32 0, ptr %id, align 4
  br label %return

return:                                           ; preds = %entry, %if.end
  ret void
}